; Function Attrs: mustprogress uwtable
define void @_ZN23MLRenderingGlobalActionC2ERK7QStringRK5QIconP7QObject(ptr noundef nonnull align 8 dereferenceable(32) %0, ptr noundef nonnull align 8 dereferenceable(8) %1, ptr noundef nonnull align 8 dereferenceable(8) %2, ptr noundef %3) unnamed_addr #9 align 2 personality ptr @__gxx_personality_v0 {
  %5 = alloca %class.QIcon, align 8
  call void @_ZN5QIconC1ERKS_(ptr noundef nonnull align 8 dereferenceable(8) %5, ptr noundef nonnull align 8 dereferenceable(8) %2)
  invoke void @_ZN7QActionC2ERK5QIconRK7QStringP7QObject(ptr noundef nonnull align 8 dereferenceable(16) %0, ptr noundef nonnull align 8 dereferenceable(8) %5, ptr noundef nonnull align 8 dereferenceable(8) %1, ptr noundef %3)
          to label %6 unwind label %9

6:                                                ; preds = %4
  call void @_ZN5QIconD1Ev(ptr noundef nonnull align 8 dereferenceable(8) %5) #21
  store ptr getelementptr inbounds ({ [14 x ptr] }, ptr @_ZTV23MLRenderingGlobalAction, i64 0, i32 0, i64 2), ptr %0, align 8
  %7 = getelementptr inbounds i8, ptr %0, i64 16
  store ptr @_ZN9QListData11shared_nullE, ptr %7, align 8
  %8 = getelementptr inbounds i8, ptr %0, i64 24
  store ptr @_ZN9QListData11shared_nullE, ptr %8, align 8
  ret void

9:                                                ; preds = %4
  %10 = landingpad { ptr, i32 }
          cleanup
  call void @_ZN5QIconD1Ev(ptr noundef nonnull align 8 dereferenceable(8) %5) #21
  resume { ptr, i32 } %10
}